; ModuleID = '57/782.c'
source_filename = "57/782.c"
target datalayout = "e-m:e-p270:32:32-p271:32:32-p272:64:64-i64:64-f80:128-n8:16:32:64-S128"
target triple = "x86_64-pc-linux-gnu"

@.str = private unnamed_addr constant [3 x i8] c"%d\00", align 1
@.str.1 = private unnamed_addr constant [3 x i8] c"%s\00", align 1
@.str.2 = private unnamed_addr constant [4 x i8] c"%s\0A\00", align 1

; Function Attrs: noinline nounwind uwtable
define dso_local i32 @main() #0 {
  %1 = alloca i32, align 4
  %2 = alloca i32, align 4
  %3 = alloca i32, align 4
  %4 = alloca i32, align 4
  %5 = alloca i32, align 4
  %6 = alloca [51 x [33 x i8]], align 16
  store i32 0, i32* %1, align 4
  %7 = call i32 (i8*, ...) @__isoc99_scanf(i8* getelementptr inbounds ([3 x i8], [3 x i8]* @.str, i64 0, i64 0), i32* %2)
  store i32 0, i32* %3, align 4
  br label %8

8:                                                ; preds = %18, %0
  %9 = load i32, i32* %3, align 4
  %10 = load i32, i32* %2, align 4
  %11 = icmp slt i32 %9, %10
  br i1 %11, label %12, label %21

12:                                               ; preds = %8
  %13 = load i32, i32* %3, align 4
  %14 = sext i32 %13 to i64
  %15 = getelementptr inbounds [51 x [33 x i8]], [51 x [33 x i8]]* %6, i64 0, i64 %14
  %16 = getelementptr inbounds [33 x i8], [33 x i8]* %15, i64 0, i64 0
  %17 = call i32 (i8*, ...) @__isoc99_scanf(i8* getelementptr inbounds ([3 x i8], [3 x i8]* @.str.1, i64 0, i64 0), i8* %16)
  br label %18

18:                                               ; preds = %12
  %19 = load i32, i32* %3, align 4
  %20 = add nsw i32 %19, 1
  store i32 %20, i32* %3, align 4
  br label %8

21:                                               ; preds = %8
  store i32 0, i32* %3, align 4
  br label %22

22:                                               ; preds = %147, %21
  %23 = load i32, i32* %3, align 4
  %24 = load i32, i32* %2, align 4
  %25 = icmp slt i32 %23, %24
  br i1 %25, label %26, label %150

26:                                               ; preds = %22
  %27 = load i32, i32* %3, align 4
  %28 = sext i32 %27 to i64
  %29 = getelementptr inbounds [51 x [33 x i8]], [51 x [33 x i8]]* %6, i64 0, i64 %28
  %30 = getelementptr inbounds [33 x i8], [33 x i8]* %29, i64 0, i64 0
  %31 = call i64 @strlen(i8* %30) #3
  %32 = trunc i64 %31 to i32
  store i32 %32, i32* %5, align 4
  %33 = load i32, i32* %5, align 4
  store i32 %33, i32* %4, align 4
  br label %34

34:                                               ; preds = %138, %26
  %35 = load i32, i32* %4, align 4
  %36 = icmp sgt i32 %35, 0
  br i1 %36, label %37, label %141

37:                                               ; preds = %34
  %38 = load i32, i32* %3, align 4
  %39 = sext i32 %38 to i64
  %40 = getelementptr inbounds [51 x [33 x i8]], [51 x [33 x i8]]* %6, i64 0, i64 %39
  %41 = load i32, i32* %4, align 4
  %42 = sext i32 %41 to i64
  %43 = getelementptr inbounds [33 x i8], [33 x i8]* %40, i64 0, i64 %42
  %44 = load i8, i8* %43, align 1
  %45 = sext i8 %44 to i32
  %46 = icmp eq i32 %45, 114
  br i1 %46, label %47, label %66

47:                                               ; preds = %37
  %48 = load i32, i32* %3, align 4
  %49 = sext i32 %48 to i64
  %50 = getelementptr inbounds [51 x [33 x i8]], [51 x [33 x i8]]* %6, i64 0, i64 %49
  %51 = load i32, i32* %4, align 4
  %52 = sub nsw i32 %51, 1
  %53 = sext i32 %52 to i64
  %54 = getelementptr inbounds [33 x i8], [33 x i8]* %50, i64 0, i64 %53
  %55 = load i8, i8* %54, align 1
  %56 = sext i8 %55 to i32
  %57 = icmp eq i32 %56, 101
  br i1 %57, label %58, label %66

58:                                               ; preds = %47
  %59 = load i32, i32* %3, align 4
  %60 = sext i32 %59 to i64
  %61 = getelementptr inbounds [51 x [33 x i8]], [51 x [33 x i8]]* %6, i64 0, i64 %60
  %62 = load i32, i32* %4, align 4
  %63 = sub nsw i32 %62, 1
  %64 = sext i32 %63 to i64
  %65 = getelementptr inbounds [33 x i8], [33 x i8]* %61, i64 0, i64 %64
  store i8 0, i8* %65, align 1
  br label %141

66:                                               ; preds = %47, %37
  %67 = load i32, i32* %3, align 4
  %68 = sext i32 %67 to i64
  %69 = getelementptr inbounds [51 x [33 x i8]], [51 x [33 x i8]]* %6, i64 0, i64 %68
  %70 = load i32, i32* %4, align 4
  %71 = sext i32 %70 to i64
  %72 = getelementptr inbounds [33 x i8], [33 x i8]* %69, i64 0, i64 %71
  %73 = load i8, i8* %72, align 1
  %74 = sext i8 %73 to i32
  %75 = icmp eq i32 %74, 121
  br i1 %75, label %76, label %95

76:                                               ; preds = %66
  %77 = load i32, i32* %3, align 4
  %78 = sext i32 %77 to i64
  %79 = getelementptr inbounds [51 x [33 x i8]], [51 x [33 x i8]]* %6, i64 0, i64 %78
  %80 = load i32, i32* %4, align 4
  %81 = sub nsw i32 %80, 1
  %82 = sext i32 %81 to i64
  %83 = getelementptr inbounds [33 x i8], [33 x i8]* %79, i64 0, i64 %82
  %84 = load i8, i8* %83, align 1
  %85 = sext i8 %84 to i32
  %86 = icmp eq i32 %85, 108
  br i1 %86, label %87, label %95

87:                                               ; preds = %76
  %88 = load i32, i32* %3, align 4
  %89 = sext i32 %88 to i64
  %90 = getelementptr inbounds [51 x [33 x i8]], [51 x [33 x i8]]* %6, i64 0, i64 %89
  %91 = load i32, i32* %4, align 4
  %92 = sub nsw i32 %91, 1
  %93 = sext i32 %92 to i64
  %94 = getelementptr inbounds [33 x i8], [33 x i8]* %90, i64 0, i64 %93
  store i8 0, i8* %94, align 1
  br label %141

95:                                               ; preds = %76, %66
  %96 = load i32, i32* %3, align 4
  %97 = sext i32 %96 to i64
  %98 = getelementptr inbounds [51 x [33 x i8]], [51 x [33 x i8]]* %6, i64 0, i64 %97
  %99 = load i32, i32* %4, align 4
  %100 = sext i32 %99 to i64
  %101 = getelementptr inbounds [33 x i8], [33 x i8]* %98, i64 0, i64 %100
  %102 = load i8, i8* %101, align 1
  %103 = sext i8 %102 to i32
  %104 = icmp eq i32 %103, 103
  br i1 %104, label %105, label %135

105:                                              ; preds = %95
  %106 = load i32, i32* %3, align 4
  %107 = sext i32 %106 to i64
  %108 = getelementptr inbounds [51 x [33 x i8]], [51 x [33 x i8]]* %6, i64 0, i64 %107
  %109 = load i32, i32* %4, align 4
  %110 = sub nsw i32 %109, 1
  %111 = sext i32 %110 to i64
  %112 = getelementptr inbounds [33 x i8], [33 x i8]* %108, i64 0, i64 %111
  %113 = load i8, i8* %112, align 1
  %114 = sext i8 %113 to i32
  %115 = icmp eq i32 %114, 110
  br i1 %115, label %116, label %135

116:                                              ; preds = %105
  %117 = load i32, i32* %3, align 4
  %118 = sext i32 %117 to i64
  %119 = getelementptr inbounds [51 x [33 x i8]], [51 x [33 x i8]]* %6, i64 0, i64 %118
  %120 = load i32, i32* %4, align 4
  %121 = sub nsw i32 %120, 2
  %122 = sext i32 %121 to i64
  %123 = getelementptr inbounds [33 x i8], [33 x i8]* %119, i64 0, i64 %122
  %124 = load i8, i8* %123, align 1
  %125 = sext i8 %124 to i32
  %126 = icmp eq i32 %125, 105
  br i1 %126, label %127, label %135

127:                                              ; preds = %116
  %128 = load i32, i32* %3, align 4
  %129 = sext i32 %128 to i64
  %130 = getelementptr inbounds [51 x [33 x i8]], [51 x [33 x i8]]* %6, i64 0, i64 %129
  %131 = load i32, i32* %4, align 4
  %132 = sub nsw i32 %131, 2
  %133 = sext i32 %132 to i64
  %134 = getelementptr inbounds [33 x i8], [33 x i8]* %130, i64 0, i64 %133
  store i8 0, i8* %134, align 1
  br label %141

135:                                              ; preds = %116, %105, %95
  br label %136

136:                                              ; preds = %135
  br label %137

137:                                              ; preds = %136
  br label %138

138:                                              ; preds = %137
  %139 = load i32, i32* %4, align 4
  %140 = add nsw i32 %139, -1
  store i32 %140, i32* %4, align 4
  br label %34

141:                                              ; preds = %127, %87, %58, %34
  %142 = load i32, i32* %3, align 4
  %143 = sext i32 %142 to i64
  %144 = getelementptr inbounds [51 x [33 x i8]], [51 x [33 x i8]]* %6, i64 0, i64 %143
  %145 = getelementptr inbounds [33 x i8], [33 x i8]* %144, i64 0, i64 0
  %146 = call i32 (i8*, ...) @printf(i8* getelementptr inbounds ([4 x i8], [4 x i8]* @.str.2, i64 0, i64 0), i8* %145)
  br label %147

147:                                              ; preds = %141
  %148 = load i32, i32* %3, align 4
  %149 = add nsw i32 %148, 1
  store i32 %149, i32* %3, align 4
  br label %22

150:                                              ; preds = %22
  ret i32 0
}

declare dso_local i32 @__isoc99_scanf(i8*, ...) #1

; Function Attrs: nounwind readonly
declare dso_local i64 @strlen(i8*) #2

declare dso_local i32 @printf(i8*, ...) #1


!llvm.module.flags = !{!0}
!llvm.ident = !{!1}

!0 = !{i32 1, !"wchar_size", i32 4}
!1 = !{!"clang version 10.0.0-4ubuntu1 "}
